target datalayout = "e-m:e-p270:32:32-p271:32:32-p272:64:64-i64:64-i128:128-f80:128-n8:16:32:64-S128"
target triple = "x86_64-pc-linux-gnu"

%struct.pg_locale_struct = type { i8, i8, i8, i8, i8, ptr, %union.anon }
%union.anon = type { %struct.anon }
%struct.anon = type { ptr, i8 }

@.str = private unnamed_addr constant [59 x i8] c"could not determine which collation to use for %s function\00", align 1
@.str.1 = private unnamed_addr constant [8 x i8] c"lower()\00", align 1
@.str.2 = private unnamed_addr constant [56 x i8] c"Use the COLLATE clause to set the collation explicitly.\00", align 1
@.str.3 = private unnamed_addr constant [13 x i8] c"formatting.c\00", align 1
@__func__.str_casefold = private unnamed_addr constant [13 x i8] c"str_casefold\00", align 1
@.str.6 = private unnamed_addr constant [70 x i8] c"Unicode case folding can only be performed if server encoding is UTF8\00", align 1

; Function Attrs: nounwind uwtable
define dso_local ptr @asc_tolower(ptr noundef %0, i64 noundef %1) #0 {
  %3 = alloca ptr, align 8
  %4 = alloca ptr, align 8
  %5 = alloca i64, align 8
  %6 = alloca ptr, align 8
  %7 = alloca ptr, align 8
  %8 = alloca i32, align 4
  store ptr %0, ptr %4, align 8
  store i64 %1, ptr %5, align 8
  call void @llvm.lifetime.start.p0(i64 8, ptr %6) #11
  call void @llvm.lifetime.start.p0(i64 8, ptr %7) #11
  %9 = load ptr, ptr %4, align 8
  %10 = icmp ne ptr %9, null
  br i1 %10, label %12, label %11

11:                                               ; preds = %2
  store ptr null, ptr %3, align 8
  store i32 1, ptr %8, align 4
  br label %31

12:                                               ; preds = %2
  %13 = load ptr, ptr %4, align 8
  %14 = load i64, ptr %5, align 8
  %15 = call ptr @pnstrdup(ptr noundef %13, i64 noundef %14)
  store ptr %15, ptr %6, align 8
  %16 = load ptr, ptr %6, align 8
  store ptr %16, ptr %7, align 8
  br label %17

17:                                               ; preds = %26, %12
  %18 = load ptr, ptr %7, align 8
  %19 = load i8, ptr %18, align 1
  %20 = icmp ne i8 %19, 0
  br i1 %20, label %21, label %29

21:                                               ; preds = %17
  %22 = load ptr, ptr %7, align 8
  %23 = load i8, ptr %22, align 1
  %24 = call zeroext i8 @pg_ascii_tolower(i8 noundef zeroext %23)
  %25 = load ptr, ptr %7, align 8
  store i8 %24, ptr %25, align 1
  br label %26

26:                                               ; preds = %21
  %27 = load ptr, ptr %7, align 8
  %28 = getelementptr inbounds nuw i8, ptr %27, i32 1
  store ptr %28, ptr %7, align 8
  br label %17, !llvm.loop !6

29:                                               ; preds = %17
  %30 = load ptr, ptr %6, align 8
  store ptr %30, ptr %3, align 8
  store i32 1, ptr %8, align 4
  br label %31

31:                                               ; preds = %29, %11
  call void @llvm.lifetime.end.p0(i64 8, ptr %7) #11
  call void @llvm.lifetime.end.p0(i64 8, ptr %6) #11
  %32 = load ptr, ptr %3, align 8
  ret ptr %32
}

; Function Attrs: nounwind uwtable
define dso_local ptr @str_casefold(ptr noundef %0, i64 noundef %1, i32 noundef %2) #0 {
  %4 = alloca ptr, align 8
  %5 = alloca ptr, align 8
  %6 = alloca i64, align 8
  %7 = alloca i32, align 4
  %8 = alloca ptr, align 8
  %9 = alloca ptr, align 8
  %10 = alloca i32, align 4
  %11 = alloca ptr, align 8
  %12 = alloca i64, align 8
  %13 = alloca i64, align 8
  %14 = alloca ptr, align 8
  %15 = alloca i64, align 8
  store ptr %0, ptr %5, align 8
  store i64 %1, ptr %6, align 8
  store i32 %2, ptr %7, align 4
  call void @llvm.lifetime.start.p0(i64 8, ptr %8) #11
  call void @llvm.lifetime.start.p0(i64 8, ptr %9) #11
  %16 = load ptr, ptr %5, align 8
  %17 = icmp ne ptr %16, null
  br i1 %17, label %19, label %18

18:                                               ; preds = %3
  store ptr null, ptr %4, align 8
  store i32 1, ptr %10, align 4
  br label %94

19:                                               ; preds = %3
  %20 = load i32, ptr %7, align 4
  %21 = icmp ne i32 %20, 0
  br i1 %21, label %35, label %22

22:                                               ; preds = %19
  br label %23

23:                                               ; preds = %22
  br i1 true, label %24, label %26

24:                                               ; preds = %23
  %25 = call zeroext i1 @errstart_cold(i32 noundef 21, ptr noundef null) #12
  br i1 %25, label %28, label %32

26:                                               ; preds = %23
  %27 = call zeroext i1 @errstart(i32 noundef 21, ptr noundef null)
  br i1 %27, label %28, label %32

28:                                               ; preds = %26, %24
  %29 = call i32 @errcode(i32 noundef 34209924)
  %30 = call i32 (ptr, ...) @errmsg(ptr noundef @.str, ptr noundef @.str.1)
  %31 = call i32 (ptr, ...) @errhint(ptr noundef @.str.2)
  call void @errfinish(ptr noundef @.str.3, i32 noundef 1847, ptr noundef @__func__.str_casefold)
  br label %32

32:                                               ; preds = %28, %26, %24
  unreachable

33:                                               ; No predecessors!
  br label %34

34:                                               ; preds = %33
  br label %35

35:                                               ; preds = %34, %19
  %36 = call i32 @GetDatabaseEncoding()
  %37 = icmp ne i32 %36, 6
  br i1 %37, label %38, label %50

38:                                               ; preds = %35
  br label %39

39:                                               ; preds = %38
  br i1 true, label %40, label %42

40:                                               ; preds = %39
  %41 = call zeroext i1 @errstart_cold(i32 noundef 21, ptr noundef null) #12
  br i1 %41, label %44, label %47

42:                                               ; preds = %39
  %43 = call zeroext i1 @errstart(i32 noundef 21, ptr noundef null)
  br i1 %43, label %44, label %47

44:                                               ; preds = %42, %40
  %45 = call i32 @errcode(i32 noundef 16801924)
  %46 = call i32 (ptr, ...) @errmsg(ptr noundef @.str.6)
  call void @errfinish(ptr noundef @.str.3, i32 noundef 1853, ptr noundef @__func__.str_casefold)
  br label %47

47:                                               ; preds = %44, %42, %40
  unreachable

48:                                               ; No predecessors!
  br label %49

49:                                               ; preds = %48
  br label %50

50:                                               ; preds = %49, %35
  %51 = load i32, ptr %7, align 4
  %52 = call ptr @pg_newlocale_from_collation(i32 noundef %51)
  store ptr %52, ptr %9, align 8
  %53 = load ptr, ptr %9, align 8
  %54 = getelementptr inbounds nuw %struct.pg_locale_struct, ptr %53, i32 0, i32 3
  %55 = load i8, ptr %54, align 1, !range !4, !noundef !5
  %56 = trunc i8 %55 to i1
  br i1 %56, label %57, label %61

57:                                               ; preds = %50
  %58 = load ptr, ptr %5, align 8
  %59 = load i64, ptr %6, align 8
  %60 = call ptr @asc_tolower(ptr noundef %58, i64 noundef %59)
  store ptr %60, ptr %8, align 8
  br label %92

61:                                               ; preds = %50
  call void @llvm.lifetime.start.p0(i64 8, ptr %11) #11
  %62 = load ptr, ptr %5, align 8
  store ptr %62, ptr %11, align 8
  call void @llvm.lifetime.start.p0(i64 8, ptr %12) #11
  %63 = load i64, ptr %6, align 8
  store i64 %63, ptr %12, align 8
  call void @llvm.lifetime.start.p0(i64 8, ptr %13) #11
  call void @llvm.lifetime.start.p0(i64 8, ptr %14) #11
  call void @llvm.lifetime.start.p0(i64 8, ptr %15) #11
  %64 = load i64, ptr %12, align 8
  %65 = add i64 %64, 1
  store i64 %65, ptr %13, align 8
  %66 = load i64, ptr %13, align 8
  %67 = call ptr @palloc(i64 noundef %66)
  store ptr %67, ptr %14, align 8
  %68 = load ptr, ptr %14, align 8
  %69 = load i64, ptr %13, align 8
  %70 = load ptr, ptr %11, align 8
  %71 = load i64, ptr %12, align 8
  %72 = load ptr, ptr %9, align 8
  %73 = call i64 @pg_strfold(ptr noundef %68, i64 noundef %69, ptr noundef %70, i64 noundef %71, ptr noundef %72)
  store i64 %73, ptr %15, align 8
  %74 = load i64, ptr %15, align 8
  %75 = add i64 %74, 1
  %76 = load i64, ptr %13, align 8
  %77 = icmp ugt i64 %75, %76
  br i1 %77, label %78, label %90

78:                                               ; preds = %61
  %79 = load i64, ptr %15, align 8
  %80 = add i64 %79, 1
  store i64 %80, ptr %13, align 8
  %81 = load ptr, ptr %14, align 8
  %82 = load i64, ptr %13, align 8
  %83 = call ptr @repalloc(ptr noundef %81, i64 noundef %82)
  store ptr %83, ptr %14, align 8
  %84 = load ptr, ptr %14, align 8
  %85 = load i64, ptr %13, align 8
  %86 = load ptr, ptr %11, align 8
  %87 = load i64, ptr %12, align 8
  %88 = load ptr, ptr %9, align 8
  %89 = call i64 @pg_strfold(ptr noundef %84, i64 noundef %85, ptr noundef %86, i64 noundef %87, ptr noundef %88)
  store i64 %89, ptr %15, align 8
  br label %90

90:                                               ; preds = %78, %61
  %91 = load ptr, ptr %14, align 8
  store ptr %91, ptr %8, align 8
  call void @llvm.lifetime.end.p0(i64 8, ptr %15) #11
  call void @llvm.lifetime.end.p0(i64 8, ptr %14) #11
  call void @llvm.lifetime.end.p0(i64 8, ptr %13) #11
  call void @llvm.lifetime.end.p0(i64 8, ptr %12) #11
  call void @llvm.lifetime.end.p0(i64 8, ptr %11) #11
  br label %92

92:                                               ; preds = %90, %57
  %93 = load ptr, ptr %8, align 8
  store ptr %93, ptr %4, align 8
  store i32 1, ptr %10, align 4
  br label %94

94:                                               ; preds = %92, %18
  call void @llvm.lifetime.end.p0(i64 8, ptr %9) #11
  call void @llvm.lifetime.end.p0(i64 8, ptr %8) #11
  %95 = load ptr, ptr %4, align 8
  ret ptr %95
}