; Function Attrs: nounwind uwtable
define dso_local noundef ptr @str_casefold(ptr noundef %0, i64 noundef %1, i32 noundef %2) local_unnamed_addr #0 {
  %.not = icmp eq ptr %0, null
  br i1 %.not, label %asc_tolower.exit, label %4

4:                                                ; preds = %3
  %.not32 = icmp eq i32 %2, 0
  br i1 %.not32, label %5, label %10

5:                                                ; preds = %4
  %6 = tail call zeroext i1 @errstart_cold(i32 noundef 21, ptr noundef null) #17
  tail call void @llvm.assume(i1 %6)
  %7 = tail call i32 @errcode(i32 noundef 34209924) #18
  %8 = tail call i32 (ptr, ...) @errmsg(ptr noundef nonnull @.str, ptr noundef nonnull @.str.1) #18
  %9 = tail call i32 (ptr, ...) @errhint(ptr noundef nonnull @.str.2) #18
  tail call void @errfinish(ptr noundef nonnull @.str.3, i32 noundef 1847, ptr noundef nonnull @__func__.str_casefold) #18
  unreachable

10:                                               ; preds = %4
  %11 = tail call i32 @GetDatabaseEncoding() #18
  %.not33 = icmp eq i32 %11, 6
  br i1 %.not33, label %16, label %12

12:                                               ; preds = %10
  %13 = tail call zeroext i1 @errstart_cold(i32 noundef 21, ptr noundef null) #17
  tail call void @llvm.assume(i1 %13)
  %14 = tail call i32 @errcode(i32 noundef 16801924) #18
  %15 = tail call i32 (ptr, ...) @errmsg(ptr noundef nonnull @.str.6) #18
  tail call void @errfinish(ptr noundef nonnull @.str.3, i32 noundef 1853, ptr noundef nonnull @__func__.str_casefold) #18
  unreachable

16:                                               ; preds = %10
  %17 = tail call ptr @pg_newlocale_from_collation(i32 noundef %2) #18
  %18 = getelementptr inbounds nuw i8, ptr %17, i64 3
  %19 = load i8, ptr %18, align 1, !range !4, !noundef !5
  %20 = trunc nuw i8 %19 to i1
  br i1 %20, label %21, label %28

21:                                               ; preds = %16
  %22 = tail call ptr @pnstrdup(ptr noundef nonnull %0, i64 noundef %1) #18
  %23 = load i8, ptr %22, align 1
  %.not1213.i = icmp eq i8 %23, 0
  br i1 %.not1213.i, label %asc_tolower.exit, label %.lr.ph.i

.lr.ph.i:                                         ; preds = %21, %.lr.ph.i
  %24 = phi i8 [ %27, %.lr.ph.i ], [ %23, %21 ]
  %.014.i = phi ptr [ %26, %.lr.ph.i ], [ %22, %21 ]
  %25 = tail call zeroext i8 @pg_ascii_tolower(i8 noundef zeroext %24) #18
  store i8 %25, ptr %.014.i, align 1
  %26 = getelementptr inbounds nuw i8, ptr %.014.i, i64 1
  %27 = load i8, ptr %26, align 1
  %.not12.i = icmp eq i8 %27, 0
  br i1 %.not12.i, label %asc_tolower.exit, label %.lr.ph.i, !llvm.loop !6

28:                                               ; preds = %16
  %29 = add i64 %1, 1
  %30 = tail call ptr @palloc(i64 noundef %29) #18
  %31 = tail call i64 @pg_strfold(ptr noundef %30, i64 noundef %29, ptr noundef nonnull %0, i64 noundef %1, ptr noundef nonnull %17) #18
  %32 = add i64 %31, 1
  %33 = icmp ugt i64 %32, %29
  br i1 %33, label %34, label %asc_tolower.exit

34:                                               ; preds = %28
  %35 = tail call ptr @repalloc(ptr noundef %30, i64 noundef %32) #18
  %36 = tail call i64 @pg_strfold(ptr noundef %35, i64 noundef %32, ptr noundef nonnull %0, i64 noundef %1, ptr noundef nonnull %17) #18
  br label %asc_tolower.exit

asc_tolower.exit:                                 ; preds = %.lr.ph.i, %21, %34, %28, %3
  %.027 = phi ptr [ null, %3 ], [ %35, %34 ], [ %30, %28 ], [ %22, %21 ], [ %22, %.lr.ph.i ]
  ret ptr %.027
}